target datalayout = "e-m:e-p270:32:32-p271:32:32-p272:64:64-i64:64-i128:128-f80:128-n8:16:32:64-S128"
target triple = "x86_64-pc-linux-gnu"

%struct._tokenizer_mode = type { i32, i32, i32, i8, i32, i32, ptr, ptr, i32, i64, i64, i64, i64, ptr, i32, i32 }
%struct.tok_state = type { ptr, ptr, ptr, i32, ptr, ptr, ptr, ptr, i32, ptr, i32, i32, [100 x i32], i32, i32, ptr, ptr, i32, i32, i32, i32, i32, [200 x i8], [200 x i32], [200 x i32], ptr, [100 x i32], i32, i32, ptr, i32, ptr, ptr, ptr, ptr, ptr, ptr, ptr, ptr, i32, i32, ptr, i32, [150 x %struct._tokenizer_mode], i32, i32, i32, i32 }
%struct.token = type { i32, i32, i32, i32, i32, ptr, ptr, ptr }

; Function Attrs: nounwind uwtable
define hidden i32 @_PyLexer_type_comment_token_setup(ptr noundef %0, ptr noundef %1, i32 noundef %2, i32 noundef %3, i32 noundef %4, ptr noundef %5, ptr noundef %6) #0 {
  %8 = alloca ptr, align 8
  %9 = alloca ptr, align 8
  %10 = alloca i32, align 4
  %11 = alloca i32, align 4
  %12 = alloca i32, align 4
  %13 = alloca ptr, align 8
  %14 = alloca ptr, align 8
  store ptr %0, ptr %8, align 8, !tbaa !4
  store ptr %1, ptr %9, align 8, !tbaa !70
  store i32 %2, ptr %10, align 4, !tbaa !27
  store i32 %3, ptr %11, align 4, !tbaa !27
  store i32 %4, ptr %12, align 4, !tbaa !27
  store ptr %5, ptr %13, align 8, !tbaa !58
  store ptr %6, ptr %14, align 8, !tbaa !58
  %15 = load ptr, ptr %8, align 8, !tbaa !4
  %16 = getelementptr inbounds nuw %struct.tok_state, ptr %15, i32 0, i32 21
  %17 = load i32, ptr %16, align 8, !tbaa !35
  %18 = load ptr, ptr %9, align 8, !tbaa !70
  %19 = getelementptr inbounds nuw %struct.token, ptr %18, i32 0, i32 0
  store i32 %17, ptr %19, align 8, !tbaa !74
  %20 = load ptr, ptr %8, align 8, !tbaa !4
  %21 = getelementptr inbounds nuw %struct.tok_state, ptr %20, i32 0, i32 17
  %22 = load i32, ptr %21, align 8, !tbaa !32
  %23 = load ptr, ptr %9, align 8, !tbaa !70
  %24 = getelementptr inbounds nuw %struct.token, ptr %23, i32 0, i32 3
  store i32 %22, ptr %24, align 4, !tbaa !75
  %25 = load ptr, ptr %9, align 8, !tbaa !70
  %26 = getelementptr inbounds nuw %struct.token, ptr %25, i32 0, i32 1
  store i32 %22, ptr %26, align 4, !tbaa !76
  %27 = load i32, ptr %11, align 4, !tbaa !27
  %28 = load ptr, ptr %9, align 8, !tbaa !70
  %29 = getelementptr inbounds nuw %struct.token, ptr %28, i32 0, i32 2
  store i32 %27, ptr %29, align 8, !tbaa !77
  %30 = load i32, ptr %12, align 4, !tbaa !27
  %31 = load ptr, ptr %9, align 8, !tbaa !70
  %32 = getelementptr inbounds nuw %struct.token, ptr %31, i32 0, i32 4
  store i32 %30, ptr %32, align 8, !tbaa !78
  %33 = load ptr, ptr %13, align 8, !tbaa !58
  %34 = load ptr, ptr %9, align 8, !tbaa !70
  %35 = getelementptr inbounds nuw %struct.token, ptr %34, i32 0, i32 5
  store ptr %33, ptr %35, align 8, !tbaa !79
  %36 = load ptr, ptr %14, align 8, !tbaa !58
  %37 = load ptr, ptr %9, align 8, !tbaa !70
  %38 = getelementptr inbounds nuw %struct.token, ptr %37, i32 0, i32 6
  store ptr %36, ptr %38, align 8, !tbaa !80
  %39 = load i32, ptr %10, align 4, !tbaa !27
  ret i32 %39
}