; Function Attrs: mustprogress nofree norecurse nosync nounwind willreturn memory(argmem: readwrite) uwtable
define hidden noundef i32 @_PyLexer_type_comment_token_setup(ptr noundef readonly captures(none) %0, ptr noundef writeonly captures(none) initializes((0, 20), (24, 40)) %1, i32 noundef returned %2, i32 noundef %3, i32 noundef %4, ptr noundef %5, ptr noundef %6) local_unnamed_addr #4 {
  %8 = getelementptr inbounds nuw i8, ptr %0, i64 528
  %9 = load i32, ptr %8, align 8, !tbaa !21
  store i32 %9, ptr %1, align 8, !tbaa !45
  %10 = getelementptr inbounds nuw i8, ptr %0, i64 512
  %11 = load i32, ptr %10, align 8, !tbaa !46
  %12 = getelementptr inbounds nuw i8, ptr %1, i64 12
  store i32 %11, ptr %12, align 4, !tbaa !47
  %13 = getelementptr inbounds nuw i8, ptr %1, i64 4
  store i32 %11, ptr %13, align 4, !tbaa !48
  %14 = getelementptr inbounds nuw i8, ptr %1, i64 8
  store i32 %3, ptr %14, align 8, !tbaa !49
  %15 = getelementptr inbounds nuw i8, ptr %1, i64 16
  store i32 %4, ptr %15, align 8, !tbaa !50
  %16 = getelementptr inbounds nuw i8, ptr %1, i64 24
  store ptr %5, ptr %16, align 8, !tbaa !51
  %17 = getelementptr inbounds nuw i8, ptr %1, i64 32
  store ptr %6, ptr %17, align 8, !tbaa !52
  ret i32 %2
}